Certificate:
    Data:
        Version: 3 (0x2)
        Serial Number:
            55:49:28:92:47:b2:18:6b:e1:7c:21:c2:d5:43:a1:77:6b:54:fe:c3
        Signature Algorithm: sha256WithRSAEncryption
        Issuer: CN = VirtualBox
        Validity
            Not Before: Aug 15 15:19:53 2024 GMT
            Not After : Jul 22 15:19:53 2124 GMT
        Subject: CN = VirtualBox
        Subject Public Key Info:
            Public Key Algorithm: rsaEncryption
                Public-Key: (2048 bit)
                Modulus:
                    00:c5:01:33:6c:40:b8:dd:6a:57:ce:44:2b:88:61:
                    06:58:57:ec:df:fb:75:73:9d:11:bd:4f:db:50:fd:
                    a9:4c:96:4d:34:e1:28:a8:a8:9c:24:d4:b8:73:fc:
                    4b:98:03:ea:c2:85:62:9c:06:5f:6e:83:11:3a:df:
                    26:6d:c7:9e:4a:68:c5:7e:a2:4b:00:d0:37:79:bc:
                    28:37:ee:56:32:6d:ad:60:a5:20:f3:9b:e1:cf:a8:
                    d6:55:ea:6a:84:38:e0:19:30:24:db:95:46:5c:60:
                    e0:39:f7:27:ef:39:07:90:a9:d0:31:21:fe:66:f3:
                    11:b3:7c:b8:27:ea:1d:c4:e5:fa:d5:85:03:3f:eb:
                    61:6e:c8:98:7e:f7:6c:b0:a0:f6:b3:72:7f:b9:02:
                    1a:8e:e6:05:ee:36:94:15:40:25:92:96:09:d8:fd:
                    8c:1d:b4:6c:0c:ce:7a:d7:91:88:74:d7:96:27:32:
                    61:b1:a3:24:10:a0:9c:1c:43:b7:c5:cd:4b:4b:87:
                    13:f6:d3:cc:4a:8a:d4:ea:02:4c:b4:85:4b:44:e1:
                    ff:85:37:cc:59:bc:3a:f0:b2:24:55:08:1f:03:bf:
                    37:9a:16:b3:1a:d1:99:2d:77:8e:e7:86:0d:32:76:
                    6f:f9:13:32:85:91:52:90:39:6c:8b:7b:f9:3a:58:
                    66:57
                Exponent: 65537 (0x10001)
        X509v3 extensions:
            X509v3 Subject Key Identifier: 
                C5:91:BB:BB:BA:40:B0:C5:EA:EB:55:DF:C7:13:6E:E0:5A:4F:F2:07
            X509v3 Authority Key Identifier: 
                C5:91:BB:BB:BA:40:B0:C5:EA:EB:55:DF:C7:13:6E:E0:5A:4F:F2:07
            X509v3 Basic Constraints: critical
                CA:TRUE
    Signature Algorithm: sha256WithRSAEncryption
    Signature Value:
        90:ac:85:22:1d:a7:23:df:a8:76:0c:7f:87:8e:3a:05:ea:b2:
        9d:8d:3f:7d:7b:9f:31:53:0d:e9:24:f6:aa:2e:2e:1f:86:7b:
        43:bc:1c:77:2e:10:22:7a:c9:df:59:f6:aa:9b:db:f7:01:c5:
        63:aa:5f:f1:f4:98:0a:2d:2d:98:7b:86:a2:1f:fc:ef:0f:06:
        bd:2d:be:6e:5b:26:ed:38:65:fb:35:8c:e2:bd:99:53:33:2b:
        12:d7:79:e0:d6:8d:cc:46:72:53:6a:ae:86:e9:13:45:76:9d:
        34:ad:f2:14:dd:99:ae:3b:49:d7:d9:75:b6:8f:78:db:c5:67:
        d8:07:bb:df:ff:f9:00:56:29:6e:03:fa:40:e5:a5:f6:b4:5a:
        ee:ed:b1:37:b0:42:56:87:e2:07:93:02:eb:1f:31:fe:91:7f:
        26:f9:bd:f2:bd:5f:f6:73:fd:87:f8:0b:f7:cf:0e:34:8a:f1:
        83:ae:45:ed:4b:93:72:b0:47:2b:eb:3d:e1:0a:f5:b0:d6:e6:
        a9:a9:6b:74:b7:01:0e:3b:fc:6f:7d:63:6e:ae:ae:82:be:a1:
        09:33:66:8b:58:02:d7:47:d3:7b:a8:84:c4:62:d0:9f:56:ab:
        81:7c:93:08:37:b4:e1:02:96:be:75:83:79:ce:8c:56:91:ce:
        2d:41:0e:c1
-----BEGIN CERTIFICATE-----
MIIDDTCCAfWgAwIBAgIUVUkokkeyGGvhfCHC1UOhd2tU/sMwDQYJKoZIhvcNAQEL
BQAwFTETMBEGA1UEAwwKVmlydHVhbEJveDAgFw0yNDA4MTUxNTE5NTNaGA8yMTI0
MDcyMjE1MTk1M1owFTETMBEGA1UEAwwKVmlydHVhbEJveDCCASIwDQYJKoZIhvcN
AQEBBQADggEPADCCAQoCggEBAMUBM2xAuN1qV85EK4hhBlhX7N/7dXOdEb1P21D9
qUyWTTThKKionCTUuHP8S5gD6sKFYpwGX26DETrfJm3HnkpoxX6iSwDQN3m8KDfu
VjJtrWClIPOb4c+o1lXqaoQ44BkwJNuVRlxg4Dn3J+85B5Cp0DEh/mbzEbN8uCfq
HcTl+tWFAz/rYW7ImH73bLCg9rNyf7kCGo7mBe42lBVAJZKWCdj9jB20bAzOeteR
iHTXlicyYbGjJBCgnBxDt8XNS0uHE/bTzEqK1OoCTLSFS0Th/4U3zFm8OvCyJFUI
HwO/N5oWsxrRmS13jueGDTJ2b/kTMoWRUpA5bIt7+TpYZlcCAwEAAaNTMFEwHQYD
VR0OBBYEFMWRu7u6QLDF6utV38cTbuBaT/IHMB8GA1UdIwQYMBaAFMWRu7u6QLDF
6utV38cTbuBaT/IHMA8GA1UdEwEB/wQFMAMBAf8wDQYJKoZIhvcNAQELBQADggEB
AJCshSIdpyPfqHYMf4eOOgXqsp2NP317nzFTDekk9qouLh+Ge0O8HHcuECJ6yd9Z
9qqb2/cBxWOqX/H0mAotLZh7hqIf/O8PBr0tvm5bJu04Zfs1jOK9mVMzKxLXeeDW
jcxGclNqrobpE0V2nTSt8hTdma47SdfZdbaPeNvFZ9gHu9//+QBWKW4D+kDlpfa0
Wu7tsTewQlaH4geTAusfMf6Rfyb5vfK9X/Zz/Yf4C/fPDjSK8YOuRe1Lk3KwRyvr
PeEK9bDW5qmpa3S3AQ47/G99Y26uroK+oQkzZotYAtdH03uohMRi0J9Wq4F8kwg3
tOEClr51g3nOjFaRzi1BDsE=
-----END CERTIFICATE-----
